target datalayout = "e-m:e-p270:32:32-p271:32:32-p272:64:64-i64:64-i128:128-f80:128-n8:16:32:64-S128"
target triple = "x86_64-pc-linux-gnu"

%class.btMultiBodyConstraintSolver = type <{ %class.btSequentialImpulseConstraintSolver, %class.btAlignedObjectArray.6, %class.btAlignedObjectArray.6, %class.btAlignedObjectArray.6, %class.btAlignedObjectArray.6, %class.btAlignedObjectArray.6, %struct.btMultiBodyJacobianData, ptr, i32, [4 x i8] }>
%class.btSequentialImpulseConstraintSolver = type { %class.btConstraintSolver, %class.btAlignedObjectArray, %class.btAlignedObjectArray.0, %class.btAlignedObjectArray.0, %class.btAlignedObjectArray.0, %class.btAlignedObjectArray.0, %class.btAlignedObjectArray.2, %class.btAlignedObjectArray.2, %class.btAlignedObjectArray.2, %class.btAlignedObjectArray.4, i32, i32, %class.btAlignedObjectArray.2, ptr, ptr, ptr, i32, float, i64, %struct.btSolverAnalyticsData }
%class.btConstraintSolver = type { ptr }
%class.btAlignedObjectArray = type <{ [4 x i8], i32, i32, [4 x i8], ptr, i8, [7 x i8] }>
%class.btAlignedObjectArray.0 = type <{ [4 x i8], i32, i32, [4 x i8], ptr, i8, [7 x i8] }>
%class.btAlignedObjectArray.4 = type <{ [4 x i8], i32, i32, [4 x i8], ptr, i8, [7 x i8] }>
%class.btAlignedObjectArray.2 = type <{ [4 x i8], i32, i32, [4 x i8], ptr, i8, [7 x i8] }>
%struct.btSolverAnalyticsData = type { i32, i32, i32, i32, i32, double }
%class.btAlignedObjectArray.6 = type <{ [4 x i8], i32, i32, [4 x i8], ptr, i8, [7 x i8] }>
%struct.btMultiBodyJacobianData = type <{ %class.btAlignedObjectArray.8, %class.btAlignedObjectArray.8, %class.btAlignedObjectArray.8, %class.btAlignedObjectArray.8, %class.btAlignedObjectArray.10, %class.btAlignedObjectArray.12, ptr, i32, [4 x i8] }>
%class.btAlignedObjectArray.8 = type <{ [4 x i8], i32, i32, [4 x i8], ptr, i8, [7 x i8] }>
%class.btAlignedObjectArray.10 = type <{ [4 x i8], i32, i32, [4 x i8], ptr, i8, [7 x i8] }>
%class.btAlignedObjectArray.12 = type <{ [4 x i8], i32, i32, [4 x i8], ptr, i8, [7 x i8] }>

; Function Attrs: mustprogress uwtable
define dso_local void @_ZN27btMultiBodyConstraintSolver19solveMultiBodyGroupEPP17btCollisionObjectiPP20btPersistentManifoldiPP17btTypedConstraintiPP21btMultiBodyConstraintiRK19btContactSolverInfoP12btIDebugDrawP12btDispatcher(ptr noundef nonnull align 8 dereferenceable(788) %0, ptr noundef %1, i32 noundef %2, ptr noundef %3, i32 noundef %4, ptr noundef %5, i32 noundef %6, ptr noundef %7, i32 noundef %8, ptr noundef nonnull align 4 dereferenceable(128) %9, ptr noundef %10, ptr noundef %11) unnamed_addr #2 align 2 {
  %13 = alloca ptr, align 8
  %14 = alloca ptr, align 8
  %15 = alloca i32, align 4
  %16 = alloca ptr, align 8
  %17 = alloca i32, align 4
  %18 = alloca ptr, align 8
  %19 = alloca i32, align 4
  %20 = alloca ptr, align 8
  %21 = alloca i32, align 4
  %22 = alloca ptr, align 8
  %23 = alloca ptr, align 8
  %24 = alloca ptr, align 8
  store ptr %0, ptr %13, align 8, !tbaa !12
  store ptr %1, ptr %14, align 8, !tbaa !14
  store i32 %2, ptr %15, align 4, !tbaa !9
  store ptr %3, ptr %16, align 8, !tbaa !16
  store i32 %4, ptr %17, align 4, !tbaa !9
  store ptr %5, ptr %18, align 8, !tbaa !18
  store i32 %6, ptr %19, align 4, !tbaa !9
  store ptr %7, ptr %20, align 8, !tbaa !230
  store i32 %8, ptr %21, align 4, !tbaa !9
  store ptr %9, ptr %22, align 8, !tbaa !20
  store ptr %10, ptr %23, align 8, !tbaa !22
  store ptr %11, ptr %24, align 8, !tbaa !223
  %25 = load ptr, ptr %13, align 8
  %26 = load ptr, ptr %20, align 8, !tbaa !230
  %27 = getelementptr inbounds nuw %class.btMultiBodyConstraintSolver, ptr %25, i32 0, i32 7
  store ptr %26, ptr %27, align 8, !tbaa !214
  %28 = load i32, ptr %21, align 4, !tbaa !9
  %29 = getelementptr inbounds nuw %class.btMultiBodyConstraintSolver, ptr %25, i32 0, i32 8
  store i32 %28, ptr %29, align 8, !tbaa !196
  %30 = load ptr, ptr %14, align 8, !tbaa !14
  %31 = load i32, ptr %15, align 4, !tbaa !9
  %32 = load ptr, ptr %16, align 8, !tbaa !16
  %33 = load i32, ptr %17, align 4, !tbaa !9
  %34 = load ptr, ptr %18, align 8, !tbaa !18
  %35 = load i32, ptr %19, align 4, !tbaa !9
  %36 = load ptr, ptr %22, align 8, !tbaa !20
  %37 = load ptr, ptr %23, align 8, !tbaa !22
  %38 = load ptr, ptr %24, align 8, !tbaa !223
  %39 = call noundef float @_ZN35btSequentialImpulseConstraintSolver10solveGroupEPP17btCollisionObjectiPP20btPersistentManifoldiPP17btTypedConstraintiRK19btContactSolverInfoP12btIDebugDrawP12btDispatcher(ptr noundef nonnull align 8 dereferenceable(408) %25, ptr noundef %30, i32 noundef %31, ptr noundef %32, i32 noundef %33, ptr noundef %34, i32 noundef %35, ptr noundef nonnull align 4 dereferenceable(128) %36, ptr noundef %37, ptr noundef %38)
  %40 = getelementptr inbounds nuw %class.btMultiBodyConstraintSolver, ptr %25, i32 0, i32 7
  store ptr null, ptr %40, align 8, !tbaa !214
  %41 = getelementptr inbounds nuw %class.btMultiBodyConstraintSolver, ptr %25, i32 0, i32 8
  store i32 0, ptr %41, align 8, !tbaa !196
  ret void
}