; Function Attrs: mustprogress uwtable
define dso_local void @_ZN27btMultiBodyConstraintSolver19solveMultiBodyGroupEPP17btCollisionObjectiPP20btPersistentManifoldiPP17btTypedConstraintiPP21btMultiBodyConstraintiRK19btContactSolverInfoP12btIDebugDrawP12btDispatcher(ptr noundef nonnull align 8 dereferenceable(788) initializes((776, 788)) %0, ptr noundef %1, i32 noundef %2, ptr noundef %3, i32 noundef %4, ptr noundef %5, i32 noundef %6, ptr noundef %7, i32 noundef %8, ptr noundef nonnull align 4 dereferenceable(128) %9, ptr noundef %10, ptr noundef %11) unnamed_addr #0 align 2 {
  %13 = getelementptr inbounds nuw i8, ptr %0, i64 776
  store ptr %7, ptr %13, align 8, !tbaa !184
  %14 = getelementptr inbounds nuw i8, ptr %0, i64 784
  store i32 %8, ptr %14, align 8, !tbaa !162
  %15 = tail call noundef float @_ZN35btSequentialImpulseConstraintSolver10solveGroupEPP17btCollisionObjectiPP20btPersistentManifoldiPP17btTypedConstraintiRK19btContactSolverInfoP12btIDebugDrawP12btDispatcher(ptr noundef nonnull align 8 dereferenceable(408) %0, ptr noundef %1, i32 noundef %2, ptr noundef %3, i32 noundef %4, ptr noundef %5, i32 noundef %6, ptr noundef nonnull align 4 dereferenceable(128) %9, ptr noundef %10, ptr noundef %11)
  store ptr null, ptr %13, align 8, !tbaa !184
  store i32 0, ptr %14, align 8, !tbaa !162
  ret void
}